target datalayout = "e-m:e-p270:32:32-p271:32:32-p272:64:64-i64:64-i128:128-f80:128-n8:16:32:64-S128"
target triple = "x86_64-pc-linux-gnu"

%struct.portalhashent = type { [64 x i8], ptr }
%struct.PortalData = type { ptr, ptr, ptr, ptr, ptr, i32, i32, i32, ptr, i32, %struct.QueryCompletion, ptr, ptr, ptr, ptr, i32, i32, i32, i8, i8, ptr, ptr, ptr, ptr, ptr, ptr, ptr, i8, i8, i64, i64, i8 }
%struct.QueryCompletion = type { i32, i64 }
%struct.HASH_SEQ_STATUS = type { ptr, i32, ptr, i8, i32 }

@PortalHashTable = internal global ptr null, align 8

; Function Attrs: nounwind uwtable
define dso_local void @PortalHashTableDeleteAll() #0 {
  %1 = alloca %struct.HASH_SEQ_STATUS, align 8
  %2 = alloca ptr, align 8
  %3 = alloca i32, align 4
  %4 = alloca ptr, align 8
  call void @llvm.lifetime.start.p0(i64 32, ptr %1) #6
  call void @llvm.lifetime.start.p0(i64 8, ptr %2) #6
  %5 = load ptr, ptr @PortalHashTable, align 8
  %6 = icmp eq ptr %5, null
  br i1 %6, label %7, label %8

7:                                                ; preds = %0
  store i32 1, ptr %3, align 4
  br label %29

8:                                                ; preds = %0
  %9 = load ptr, ptr @PortalHashTable, align 8
  call void @hash_seq_init(ptr noundef %1, ptr noundef %9)
  br label %10

10:                                               ; preds = %27, %25, %8
  %11 = call ptr @hash_seq_search(ptr noundef %1)
  store ptr %11, ptr %2, align 8
  %12 = icmp ne ptr %11, null
  br i1 %12, label %13, label %28

13:                                               ; preds = %10
  call void @llvm.lifetime.start.p0(i64 8, ptr %4) #6
  %14 = load ptr, ptr %2, align 8
  %15 = getelementptr inbounds nuw %struct.portalhashent, ptr %14, i32 0, i32 1
  %16 = load ptr, ptr %15, align 8
  store ptr %16, ptr %4, align 8
  %17 = load ptr, ptr %4, align 8
  %18 = getelementptr inbounds nuw %struct.PortalData, ptr %17, i32 0, i32 17
  %19 = load i32, ptr %18, align 8
  %20 = icmp eq i32 %19, 3
  br i1 %20, label %21, label %22

21:                                               ; preds = %13
  store i32 2, ptr %3, align 4
  br label %25, !llvm.loop !8

22:                                               ; preds = %13
  %23 = load ptr, ptr %4, align 8
  call void @PortalDrop(ptr noundef %23, i1 noundef zeroext false)
  call void @hash_seq_term(ptr noundef %1)
  %24 = load ptr, ptr @PortalHashTable, align 8
  call void @hash_seq_init(ptr noundef %1, ptr noundef %24)
  store i32 0, ptr %3, align 4
  br label %25

25:                                               ; preds = %22, %21
  call void @llvm.lifetime.end.p0(i64 8, ptr %4) #6
  %26 = load i32, ptr %3, align 4
  switch i32 %26, label %32 [
    i32 0, label %27
    i32 2, label %10
  ]

27:                                               ; preds = %25
  br label %10, !llvm.loop !8

28:                                               ; preds = %10
  store i32 0, ptr %3, align 4
  br label %29

29:                                               ; preds = %28, %7
  call void @llvm.lifetime.end.p0(i64 8, ptr %2) #6
  call void @llvm.lifetime.end.p0(i64 32, ptr %1) #6
  %30 = load i32, ptr %3, align 4
  switch i32 %30, label %32 [
    i32 0, label %31
    i32 1, label %31
  ]

31:                                               ; preds = %29, %29
  ret void

32:                                               ; preds = %29, %25
  unreachable
}