; Function Attrs: nounwind uwtable
define dso_local void @PortalHashTableDeleteAll() local_unnamed_addr #0 {
  %1 = alloca %struct.HASH_SEQ_STATUS, align 8
  call void @llvm.lifetime.start.p0(i64 32, ptr nonnull %1) #8
  %2 = load ptr, ptr @PortalHashTable, align 8
  %3 = icmp eq ptr %2, null
  br i1 %3, label %.loopexit, label %4

4:                                                ; preds = %0
  call void @hash_seq_init(ptr noundef nonnull %1, ptr noundef nonnull %2) #8
  %5 = call ptr @hash_seq_search(ptr noundef nonnull %1) #8
  %.not4 = icmp eq ptr %5, null
  br i1 %.not4, label %.loopexit, label %.lr.ph

.lr.ph:                                           ; preds = %4, %14
  %6 = phi ptr [ %15, %14 ], [ %5, %4 ]
  %7 = getelementptr inbounds nuw i8, ptr %6, i64 64
  %8 = load ptr, ptr %7, align 8
  %9 = getelementptr inbounds nuw i8, ptr %8, i64 128
  %10 = load i32, ptr %9, align 8
  %11 = icmp eq i32 %10, 3
  br i1 %11, label %14, label %12, !llvm.loop !6

12:                                               ; preds = %.lr.ph
  call void @PortalDrop(ptr noundef nonnull %8, i1 noundef zeroext false)
  call void @hash_seq_term(ptr noundef nonnull %1) #8
  %13 = load ptr, ptr @PortalHashTable, align 8
  call void @hash_seq_init(ptr noundef nonnull %1, ptr noundef %13) #8
  br label %14

14:                                               ; preds = %.lr.ph, %12
  %15 = call ptr @hash_seq_search(ptr noundef nonnull %1) #8
  %.not = icmp eq ptr %15, null
  br i1 %.not, label %.loopexit, label %.lr.ph

.loopexit:                                        ; preds = %14, %4, %0
  call void @llvm.lifetime.end.p0(i64 32, ptr nonnull %1) #8
  ret void
}